target datalayout = "e-m:e-p270:32:32-p271:32:32-p272:64:64-i64:64-i128:128-f80:128-n8:16:32:64-S128"
target triple = "x86_64-pc-linux-gnu"

%struct.DdNode = type { i32, i32, ptr, %union.anon, i64 }
%union.anon = type { %struct.DdChildren }
%struct.DdChildren = type { ptr, ptr }
%struct.DdHashTable = type { i32, i32, ptr, ptr, ptr, i32, i32, i32, i32, ptr }
%struct.DdHashItem = type { ptr, i64, ptr, [1 x ptr] }

; Function Attrs: nounwind uwtable
define i32 @cuddHashTableInsert2(ptr noundef %0, ptr noundef %1, ptr noundef %2, ptr noundef %3, i64 noundef %4) #0 {
  %6 = alloca i32, align 4
  %7 = alloca ptr, align 8
  %8 = alloca ptr, align 8
  %9 = alloca ptr, align 8
  %10 = alloca ptr, align 8
  %11 = alloca i64, align 8
  %12 = alloca i32, align 4
  %13 = alloca i32, align 4
  %14 = alloca ptr, align 8
  %15 = alloca i32, align 4
  store ptr %0, ptr %7, align 8, !tbaa !62
  store ptr %1, ptr %8, align 8, !tbaa !50
  store ptr %2, ptr %9, align 8, !tbaa !50
  store ptr %3, ptr %10, align 8, !tbaa !50
  store i64 %4, ptr %11, align 8, !tbaa !85
  call void @llvm.lifetime.start.p0(i64 4, ptr %12) #10
  call void @llvm.lifetime.start.p0(i64 4, ptr %13) #10
  call void @llvm.lifetime.start.p0(i64 8, ptr %14) #10
  %16 = load ptr, ptr %7, align 8, !tbaa !62
  %17 = getelementptr inbounds nuw %struct.DdHashTable, ptr %16, i32 0, i32 7
  %18 = load i32, ptr %17, align 8, !tbaa !75
  %19 = load ptr, ptr %7, align 8, !tbaa !62
  %20 = getelementptr inbounds nuw %struct.DdHashTable, ptr %19, i32 0, i32 8
  %21 = load i32, ptr %20, align 4, !tbaa !76
  %22 = icmp ugt i32 %18, %21
  br i1 %22, label %23, label %30

23:                                               ; preds = %5
  %24 = load ptr, ptr %7, align 8, !tbaa !62
  %25 = call i32 @cuddHashTableResize(ptr noundef %24)
  store i32 %25, ptr %12, align 4, !tbaa !8
  %26 = load i32, ptr %12, align 4, !tbaa !8
  %27 = icmp eq i32 %26, 0
  br i1 %27, label %28, label %29

28:                                               ; preds = %23
  store i32 0, ptr %6, align 4
  store i32 1, ptr %15, align 4
  br label %113

29:                                               ; preds = %23
  br label %30

30:                                               ; preds = %29, %5
  %31 = load ptr, ptr %7, align 8, !tbaa !62
  %32 = call ptr @cuddHashTableAlloc(ptr noundef %31)
  store ptr %32, ptr %14, align 8, !tbaa !77
  %33 = load ptr, ptr %14, align 8, !tbaa !77
  %34 = icmp eq ptr %33, null
  br i1 %34, label %35, label %36

35:                                               ; preds = %30
  store i32 0, ptr %6, align 4
  store i32 1, ptr %15, align 4
  br label %113

36:                                               ; preds = %30
  %37 = load ptr, ptr %7, align 8, !tbaa !62
  %38 = getelementptr inbounds nuw %struct.DdHashTable, ptr %37, i32 0, i32 7
  %39 = load i32, ptr %38, align 8, !tbaa !75
  %40 = add i32 %39, 1
  store i32 %40, ptr %38, align 8, !tbaa !75
  %41 = load ptr, ptr %10, align 8, !tbaa !50
  %42 = load ptr, ptr %14, align 8, !tbaa !77
  %43 = getelementptr inbounds nuw %struct.DdHashItem, ptr %42, i32 0, i32 2
  store ptr %41, ptr %43, align 8, !tbaa !78
  %44 = load ptr, ptr %10, align 8, !tbaa !50
  %45 = ptrtoint ptr %44 to i64
  %46 = and i64 %45, -2
  %47 = inttoptr i64 %46 to ptr
  %48 = getelementptr inbounds nuw %struct.DdNode, ptr %47, i32 0, i32 1
  %49 = load i32, ptr %48, align 4, !tbaa !55
  %50 = add i32 %49, 1
  store i32 %50, ptr %48, align 4, !tbaa !55
  %51 = load i64, ptr %11, align 8, !tbaa !85
  %52 = load ptr, ptr %14, align 8, !tbaa !77
  %53 = getelementptr inbounds nuw %struct.DdHashItem, ptr %52, i32 0, i32 1
  store i64 %51, ptr %53, align 8, !tbaa !86
  %54 = load ptr, ptr %8, align 8, !tbaa !50
  %55 = load ptr, ptr %14, align 8, !tbaa !77
  %56 = getelementptr inbounds nuw %struct.DdHashItem, ptr %55, i32 0, i32 3
  %57 = getelementptr inbounds [1 x ptr], ptr %56, i64 0, i64 0
  store ptr %54, ptr %57, align 8, !tbaa !50
  %58 = load ptr, ptr %9, align 8, !tbaa !50
  %59 = load ptr, ptr %14, align 8, !tbaa !77
  %60 = getelementptr inbounds nuw %struct.DdHashItem, ptr %59, i32 0, i32 3
  %61 = getelementptr inbounds [1 x ptr], ptr %60, i64 0, i64 1
  store ptr %58, ptr %61, align 8, !tbaa !50
  %62 = load ptr, ptr %8, align 8, !tbaa !50
  %63 = ptrtoint ptr %62 to i64
  %64 = and i64 %63, -2
  %65 = inttoptr i64 %64 to ptr
  %66 = getelementptr inbounds nuw %struct.DdNode, ptr %65, i32 0, i32 4
  %67 = load i64, ptr %66, align 8, !tbaa !88
  %68 = shl i64 %67, 1
  %69 = load ptr, ptr %8, align 8, !tbaa !50
  %70 = ptrtoint ptr %69 to i64
  %71 = and i64 %70, 1
  %72 = trunc i64 %71 to i32
  %73 = sext i32 %72 to i64
  %74 = or i64 %68, %73
  %75 = trunc i64 %74 to i32
  %76 = mul i32 %75, 12582917
  %77 = load ptr, ptr %9, align 8, !tbaa !50
  %78 = ptrtoint ptr %77 to i64
  %79 = and i64 %78, -2
  %80 = inttoptr i64 %79 to ptr
  %81 = getelementptr inbounds nuw %struct.DdNode, ptr %80, i32 0, i32 4
  %82 = load i64, ptr %81, align 8, !tbaa !88
  %83 = shl i64 %82, 1
  %84 = load ptr, ptr %9, align 8, !tbaa !50
  %85 = ptrtoint ptr %84 to i64
  %86 = and i64 %85, 1
  %87 = trunc i64 %86 to i32
  %88 = sext i32 %87 to i64
  %89 = or i64 %83, %88
  %90 = trunc i64 %89 to i32
  %91 = add i32 %76, %90
  %92 = mul i32 %91, 4256249
  %93 = load ptr, ptr %7, align 8, !tbaa !62
  %94 = getelementptr inbounds nuw %struct.DdHashTable, ptr %93, i32 0, i32 6
  %95 = load i32, ptr %94, align 4, !tbaa !73
  %96 = lshr i32 %92, %95
  store i32 %96, ptr %13, align 4, !tbaa !8
  %97 = load ptr, ptr %7, align 8, !tbaa !62
  %98 = getelementptr inbounds nuw %struct.DdHashTable, ptr %97, i32 0, i32 2
  %99 = load ptr, ptr %98, align 8, !tbaa !74
  %100 = load i32, ptr %13, align 4, !tbaa !8
  %101 = zext i32 %100 to i64
  %102 = getelementptr inbounds nuw ptr, ptr %99, i64 %101
  %103 = load ptr, ptr %102, align 8, !tbaa !77
  %104 = load ptr, ptr %14, align 8, !tbaa !77
  %105 = getelementptr inbounds nuw %struct.DdHashItem, ptr %104, i32 0, i32 0
  store ptr %103, ptr %105, align 8, !tbaa !80
  %106 = load ptr, ptr %14, align 8, !tbaa !77
  %107 = load ptr, ptr %7, align 8, !tbaa !62
  %108 = getelementptr inbounds nuw %struct.DdHashTable, ptr %107, i32 0, i32 2
  %109 = load ptr, ptr %108, align 8, !tbaa !74
  %110 = load i32, ptr %13, align 4, !tbaa !8
  %111 = zext i32 %110 to i64
  %112 = getelementptr inbounds nuw ptr, ptr %109, i64 %111
  store ptr %106, ptr %112, align 8, !tbaa !77
  store i32 1, ptr %6, align 4
  store i32 1, ptr %15, align 4
  br label %113

113:                                              ; preds = %36, %35, %28
  call void @llvm.lifetime.end.p0(i64 8, ptr %14) #10
  call void @llvm.lifetime.end.p0(i64 4, ptr %13) #10
  call void @llvm.lifetime.end.p0(i64 4, ptr %12) #10
  %114 = load i32, ptr %6, align 4
  ret i32 %114
}