; Function Attrs: nounwind uwtable
define range(i32 0, 2) i32 @cuddHashTableInsert2(ptr noundef captures(none) %0, ptr noundef %1, ptr noundef %2, ptr noundef %3, i64 noundef %4) local_unnamed_addr #0 {
  %6 = getelementptr inbounds nuw i8, ptr %0, i64 40
  %7 = load i32, ptr %6, align 8, !tbaa !65
  %8 = getelementptr inbounds nuw i8, ptr %0, i64 44
  %9 = load i32, ptr %8, align 4, !tbaa !66
  %10 = icmp ugt i32 %7, %9
  br i1 %10, label %11, label %12

11:                                               ; preds = %5
  tail call fastcc void @cuddHashTableResize(ptr noundef nonnull %0)
  br label %12

12:                                               ; preds = %11, %5
  %13 = tail call fastcc ptr @cuddHashTableAlloc(ptr noundef nonnull %0)
  %14 = icmp eq ptr %13, null
  br i1 %14, label %57, label %15

15:                                               ; preds = %12
  %16 = load i32, ptr %6, align 8, !tbaa !65
  %17 = add i32 %16, 1
  store i32 %17, ptr %6, align 8, !tbaa !65
  %18 = getelementptr inbounds nuw i8, ptr %13, i64 16
  store ptr %3, ptr %18, align 8, !tbaa !68
  %19 = ptrtoint ptr %3 to i64
  %20 = and i64 %19, -2
  %21 = inttoptr i64 %20 to ptr
  %22 = getelementptr inbounds nuw i8, ptr %21, i64 4
  %23 = load i32, ptr %22, align 4, !tbaa !49
  %24 = add i32 %23, 1
  store i32 %24, ptr %22, align 4, !tbaa !49
  %25 = getelementptr inbounds nuw i8, ptr %13, i64 8
  store i64 %4, ptr %25, align 8, !tbaa !74
  %26 = getelementptr inbounds nuw i8, ptr %13, i64 24
  store ptr %1, ptr %26, align 8, !tbaa !45
  %27 = getelementptr inbounds nuw i8, ptr %13, i64 32
  store ptr %2, ptr %27, align 8, !tbaa !45
  %28 = ptrtoint ptr %1 to i64
  %29 = and i64 %28, -2
  %30 = inttoptr i64 %29 to ptr
  %31 = getelementptr inbounds nuw i8, ptr %30, i64 32
  %32 = load i64, ptr %31, align 8, !tbaa !79
  %33 = shl i64 %32, 1
  %34 = and i64 %28, 1
  %35 = or disjoint i64 %33, %34
  %36 = trunc i64 %35 to i32
  %37 = mul i32 %36, 12582917
  %38 = ptrtoint ptr %2 to i64
  %39 = and i64 %38, -2
  %40 = inttoptr i64 %39 to ptr
  %41 = getelementptr inbounds nuw i8, ptr %40, i64 32
  %42 = load i64, ptr %41, align 8, !tbaa !79
  %43 = shl i64 %42, 1
  %44 = and i64 %38, 1
  %45 = or disjoint i64 %43, %44
  %46 = trunc i64 %45 to i32
  %47 = add i32 %37, %46
  %48 = mul i32 %47, 4256249
  %49 = getelementptr inbounds nuw i8, ptr %0, i64 36
  %50 = load i32, ptr %49, align 4, !tbaa !63
  %51 = lshr i32 %48, %50
  %52 = getelementptr inbounds nuw i8, ptr %0, i64 8
  %53 = load ptr, ptr %52, align 8, !tbaa !64
  %54 = zext i32 %51 to i64
  %55 = getelementptr inbounds nuw ptr, ptr %53, i64 %54
  %56 = load ptr, ptr %55, align 8, !tbaa !67
  store ptr %56, ptr %13, align 8, !tbaa !76
  store ptr %13, ptr %55, align 8, !tbaa !67
  br label %57

57:                                               ; preds = %12, %15
  %.0 = phi i32 [ 1, %15 ], [ 0, %12 ]
  ret i32 %.0
}